target datalayout = "e-m:e-p270:32:32-p271:32:32-p272:64:64-i64:64-i128:128-f80:128-n8:16:32:64-S128"
target triple = "x86_64-pc-linux-gnu"

%struct.lex_context = type { i16, [2 x i8] }
%struct.parser_params = type { ptr, ptr, %struct.anon.12, i64, i64, i32, i32, i32, i32, i32, ptr, ptr, ptr, ptr, i32, i32, ptr, i64, ptr, ptr, ptr, ptr, i64, i64, %struct.anon.13, ptr, i32, ptr, i32, i64, %struct.lex_context, ptr, ptr, ptr, i32, i64, ptr, ptr, i32, ptr }
%struct.anon.12 = type { ptr, ptr, ptr, %struct.parser_string_buffer, ptr, ptr, ptr, ptr, ptr, ptr, i32, i32, i32, i32 }
%struct.parser_string_buffer = type { ptr, ptr }
%struct.anon.13 = type { ptr, i32, i32, i32, i32 }

; Function Attrs: inlinehint nounwind sspstrong uwtable
define internal i32 @parse_isspace(i32 noundef %0) #2 {
  %2 = alloca i32, align 4
  store i32 %0, ptr %2, align 4, !tbaa !34
  %3 = load i32, ptr %2, align 4, !tbaa !34
  %4 = icmp eq i32 %3, 32
  br i1 %4, label %13, label %5

5:                                                ; preds = %1
  %6 = load i32, ptr %2, align 4, !tbaa !34
  %7 = icmp sle i32 9, %6
  br i1 %7, label %8, label %11

8:                                                ; preds = %5
  %9 = load i32, ptr %2, align 4, !tbaa !34
  %10 = icmp sle i32 %9, 13
  br label %11

11:                                               ; preds = %8, %5
  %12 = phi i1 [ false, %5 ], [ %10, %8 ]
  br label %13

13:                                               ; preds = %11, %1
  %14 = phi i1 [ true, %1 ], [ %12, %11 ]
  %15 = zext i1 %14 to i32
  ret i32 %15
}

; Function Attrs: nounwind sspstrong uwtable
define internal i32 @whole_match_p(ptr noundef %0, ptr noundef %1, i64 noundef %2, i32 noundef %3) #0 {
  %5 = alloca i32, align 4
  %6 = alloca ptr, align 8
  %7 = alloca ptr, align 8
  %8 = alloca i64, align 8
  %9 = alloca i32, align 4
  %10 = alloca ptr, align 8
  %11 = alloca ptr, align 8
  %12 = alloca i32, align 4
  store ptr %0, ptr %6, align 8, !tbaa !7
  store ptr %1, ptr %7, align 8, !tbaa !19
  store i64 %2, ptr %8, align 8, !tbaa !12
  store i32 %3, ptr %9, align 4, !tbaa !34
  call void @llvm.lifetime.start.p0(i64 8, ptr %10) #26
  %13 = load ptr, ptr %6, align 8, !tbaa !7
  %14 = getelementptr inbounds nuw %struct.parser_params, ptr %13, i32 0, i32 2
  %15 = getelementptr inbounds nuw %struct.anon.12, ptr %14, i32 0, i32 6
  %16 = load ptr, ptr %15, align 8, !tbaa !128
  store ptr %16, ptr %10, align 8, !tbaa !19
  call void @llvm.lifetime.start.p0(i64 8, ptr %11) #26
  %17 = load ptr, ptr %6, align 8, !tbaa !7
  %18 = getelementptr inbounds nuw %struct.parser_params, ptr %17, i32 0, i32 2
  %19 = getelementptr inbounds nuw %struct.anon.12, ptr %18, i32 0, i32 8
  %20 = load ptr, ptr %19, align 8, !tbaa !448
  store ptr %20, ptr %11, align 8, !tbaa !19
  %21 = load ptr, ptr %11, align 8, !tbaa !19
  %22 = load ptr, ptr %10, align 8, !tbaa !19
  %23 = ptrtoint ptr %21 to i64
  %24 = ptrtoint ptr %22 to i64
  %25 = sub i64 %23, %24
  %26 = load i64, ptr %8, align 8, !tbaa !12
  %27 = icmp slt i64 %25, %26
  br i1 %27, label %28, label %29

28:                                               ; preds = %4
  store i32 0, ptr %5, align 4
  store i32 1, ptr %12, align 4
  br label %98

29:                                               ; preds = %4
  %30 = load ptr, ptr %11, align 8, !tbaa !19
  %31 = load ptr, ptr %10, align 8, !tbaa !19
  %32 = icmp ugt ptr %30, %31
  br i1 %32, label %33, label %63

33:                                               ; preds = %29
  %34 = load ptr, ptr %11, align 8, !tbaa !19
  %35 = getelementptr i8, ptr %34, i64 -1
  %36 = load i8, ptr %35, align 1, !tbaa !27
  %37 = sext i8 %36 to i32
  %38 = icmp eq i32 %37, 10
  br i1 %38, label %39, label %63

39:                                               ; preds = %33
  %40 = load ptr, ptr %11, align 8, !tbaa !19
  %41 = getelementptr i8, ptr %40, i32 -1
  store ptr %41, ptr %11, align 8, !tbaa !19
  %42 = load ptr, ptr %10, align 8, !tbaa !19
  %43 = icmp ugt ptr %41, %42
  br i1 %43, label %44, label %53

44:                                               ; preds = %39
  %45 = load ptr, ptr %11, align 8, !tbaa !19
  %46 = getelementptr i8, ptr %45, i64 -1
  %47 = load i8, ptr %46, align 1, !tbaa !27
  %48 = sext i8 %47 to i32
  %49 = icmp eq i32 %48, 13
  br i1 %49, label %50, label %53

50:                                               ; preds = %44
  %51 = load ptr, ptr %11, align 8, !tbaa !19
  %52 = getelementptr i8, ptr %51, i32 -1
  store ptr %52, ptr %11, align 8, !tbaa !19
  br label %53

53:                                               ; preds = %50, %44, %39
  %54 = load ptr, ptr %11, align 8, !tbaa !19
  %55 = load ptr, ptr %10, align 8, !tbaa !19
  %56 = ptrtoint ptr %54 to i64
  %57 = ptrtoint ptr %55 to i64
  %58 = sub i64 %56, %57
  %59 = load i64, ptr %8, align 8, !tbaa !12
  %60 = icmp slt i64 %58, %59
  br i1 %60, label %61, label %62

61:                                               ; preds = %53
  store i32 0, ptr %5, align 4
  store i32 1, ptr %12, align 4
  br label %98

62:                                               ; preds = %53
  br label %63

63:                                               ; preds = %62, %33, %29
  %64 = load ptr, ptr %7, align 8, !tbaa !19
  %65 = load i64, ptr %8, align 8, !tbaa !12
  %66 = load ptr, ptr %11, align 8, !tbaa !19
  %67 = sub i64 0, %65
  %68 = getelementptr i8, ptr %66, i64 %67
  store ptr %68, ptr %11, align 8, !tbaa !19
  %69 = load i64, ptr %8, align 8, !tbaa !12
  %70 = call i32 @strncmp(ptr noundef %64, ptr noundef %68, i64 noundef %69) #27
  %71 = icmp ne i32 %70, 0
  br i1 %71, label %72, label %73

72:                                               ; preds = %63
  store i32 0, ptr %5, align 4
  store i32 1, ptr %12, align 4
  br label %98

73:                                               ; preds = %63
  %74 = load i32, ptr %9, align 4, !tbaa !34
  %75 = icmp ne i32 %74, 0
  br i1 %75, label %76, label %93

76:                                               ; preds = %73
  br label %77

77:                                               ; preds = %89, %76
  %78 = load ptr, ptr %10, align 8, !tbaa !19
  %79 = load ptr, ptr %11, align 8, !tbaa !19
  %80 = icmp ult ptr %78, %79
  br i1 %80, label %81, label %87

81:                                               ; preds = %77
  %82 = load ptr, ptr %10, align 8, !tbaa !19
  %83 = load i8, ptr %82, align 1, !tbaa !27
  %84 = sext i8 %83 to i32
  %85 = call i32 @parse_isspace(i32 noundef %84)
  %86 = icmp ne i32 %85, 0
  br label %87

87:                                               ; preds = %81, %77
  %88 = phi i1 [ false, %77 ], [ %86, %81 ]
  br i1 %88, label %89, label %92

89:                                               ; preds = %87
  %90 = load ptr, ptr %10, align 8, !tbaa !19
  %91 = getelementptr i8, ptr %90, i32 1
  store ptr %91, ptr %10, align 8, !tbaa !19
  br label %77, !llvm.loop !689

92:                                               ; preds = %87
  br label %93

93:                                               ; preds = %92, %73
  %94 = load ptr, ptr %10, align 8, !tbaa !19
  %95 = load ptr, ptr %11, align 8, !tbaa !19
  %96 = icmp eq ptr %94, %95
  %97 = zext i1 %96 to i32
  store i32 %97, ptr %5, align 4
  store i32 1, ptr %12, align 4
  br label %98

98:                                               ; preds = %93, %72, %61, %28
  call void @llvm.lifetime.end.p0(i64 8, ptr %11) #26
  call void @llvm.lifetime.end.p0(i64 8, ptr %10) #26
  %99 = load i32, ptr %5, align 4
  ret i32 %99
}