; Function Attrs: nofree nounwind sspstrong memory(argmem: read) uwtable
define internal fastcc range(i32 0, 2) i32 @whole_match_p(ptr %.72.val, ptr %.88.val, ptr noundef readonly captures(none) %0, i64 noundef range(i64 0, 4294967296) %1, i32 noundef range(i32 0, 33) %2) unnamed_addr #27 {
  %4 = ptrtoint ptr %.88.val to i64
  %5 = ptrtoint ptr %.72.val to i64
  %6 = sub i64 %4, %5
  %7 = icmp slt i64 %6, %1
  br i1 %7, label %40, label %8

8:                                                ; preds = %3
  %9 = icmp ugt ptr %.88.val, %.72.val
  br i1 %9, label %10, label %24

10:                                               ; preds = %8
  %11 = getelementptr i8, ptr %.88.val, i64 -1
  %12 = load i8, ptr %11, align 1, !tbaa !25
  %13 = icmp eq i8 %12, 10
  br i1 %13, label %14, label %24

14:                                               ; preds = %10
  %15 = icmp ugt ptr %11, %.72.val
  br i1 %15, label %16, label %20

16:                                               ; preds = %14
  %17 = getelementptr i8, ptr %.88.val, i64 -2
  %18 = load i8, ptr %17, align 1, !tbaa !25
  %19 = icmp eq i8 %18, 13
  %spec.select = select i1 %19, ptr %17, ptr %11
  br label %20

20:                                               ; preds = %16, %14
  %.1 = phi ptr [ %11, %14 ], [ %spec.select, %16 ]
  %21 = ptrtoint ptr %.1 to i64
  %22 = sub i64 %21, %5
  %23 = icmp slt i64 %22, %1
  br i1 %23, label %40, label %24

24:                                               ; preds = %20, %10, %8
  %.0 = phi ptr [ %.1, %20 ], [ %.88.val, %10 ], [ %.88.val, %8 ]
  %25 = sub nsw i64 0, %1
  %26 = getelementptr i8, ptr %.0, i64 %25
  %27 = tail call i32 @strncmp(ptr noundef %0, ptr noundef %26, i64 noundef %1) #39
  %.not = icmp eq i32 %27, 0
  br i1 %.not, label %28, label %40

28:                                               ; preds = %24
  %.not35 = icmp ne i32 %2, 0
  %29 = icmp ult ptr %.72.val, %26
  %or.cond = and i1 %.not35, %29
  br i1 %or.cond, label %.lr.ph, label %.critedge

.lr.ph:                                           ; preds = %28, %35
  %.1273 = phi ptr [ %36, %35 ], [ %.72.val, %28 ]
  %30 = load i8, ptr %.1273, align 1, !tbaa !25
  %31 = sext i8 %30 to i32
  %32 = icmp ne i8 %30, 32
  %33 = add nsw i32 %31, -14
  %34 = icmp ult i32 %33, -5
  %narrow.i.not = and i1 %32, %34
  br i1 %narrow.i.not, label %.critedge, label %35

35:                                               ; preds = %.lr.ph
  %36 = getelementptr i8, ptr %.1273, i64 1
  %37 = icmp ult ptr %36, %26
  br i1 %37, label %.lr.ph, label %.critedge, !llvm.loop !571

.critedge:                                        ; preds = %35, %.lr.ph, %28
  %.026 = phi ptr [ %.72.val, %28 ], [ %36, %35 ], [ %.1273, %.lr.ph ]
  %38 = icmp eq ptr %.026, %26
  %39 = zext i1 %38 to i32
  br label %40

40:                                               ; preds = %24, %20, %3, %.critedge
  %.028 = phi i32 [ %39, %.critedge ], [ 0, %3 ], [ 0, %20 ], [ 0, %24 ]
  ret i32 %.028
}